; Function Attrs: inlinehint mustprogress nounwind uwtable
define internal void @_ZN3ue212_GLOBAL__N_119SafeReferentVisitorD2Ev(ptr noundef nonnull align 8 dereferenceable(96) initializes((0, 8)) %0) unnamed_addr #9 align 2 personality ptr @__gxx_personality_v0 {
  store ptr getelementptr inbounds nuw inrange(-16, 352) (i8, ptr @_ZTVN3ue212_GLOBAL__N_119SafeReferentVisitorE, i64 16), ptr %0, align 8
  %2 = getelementptr inbounds nuw i8, ptr %0, i64 16
  %3 = load ptr, ptr %2, align 8
  %.not.i.i.i = icmp eq ptr %3, null
  br i1 %.not.i.i.i, label %_ZNSt5stackImSt5dequeImSaImEEED2Ev.exit, label %4

4:                                                ; preds = %1
  %5 = getelementptr inbounds nuw i8, ptr %0, i64 88
  %6 = getelementptr inbounds nuw i8, ptr %0, i64 56
  %7 = load ptr, ptr %6, align 8
  %8 = load ptr, ptr %5, align 8
  %9 = getelementptr inbounds nuw i8, ptr %8, i64 8
  %10 = icmp ult ptr %7, %9
  br i1 %10, label %.lr.ph.i.i.i.i, label %_ZNSt11_Deque_baseImSaImEE16_M_destroy_nodesEPPmS3_.exit.i.i.i

.lr.ph.i.i.i.i:                                   ; preds = %4, %.lr.ph.i.i.i.i
  %.06.i.i.i.i = phi ptr [ %12, %.lr.ph.i.i.i.i ], [ %7, %4 ]
  %11 = load ptr, ptr %.06.i.i.i.i, align 8
  tail call void @_ZdlPv(ptr noundef %11) #21
  %12 = getelementptr inbounds nuw i8, ptr %.06.i.i.i.i, i64 8
  %13 = icmp ult ptr %.06.i.i.i.i, %8
  br i1 %13, label %.lr.ph.i.i.i.i, label %_ZNSt11_Deque_baseImSaImEE16_M_destroy_nodesEPPmS3_.exit.loopexit.i.i.i, !llvm.loop !5

_ZNSt11_Deque_baseImSaImEE16_M_destroy_nodesEPPmS3_.exit.loopexit.i.i.i: ; preds = %.lr.ph.i.i.i.i
  %.pre.i.i.i = load ptr, ptr %2, align 8
  br label %_ZNSt11_Deque_baseImSaImEE16_M_destroy_nodesEPPmS3_.exit.i.i.i

_ZNSt11_Deque_baseImSaImEE16_M_destroy_nodesEPPmS3_.exit.i.i.i: ; preds = %_ZNSt11_Deque_baseImSaImEE16_M_destroy_nodesEPPmS3_.exit.loopexit.i.i.i, %4
  %14 = phi ptr [ %.pre.i.i.i, %_ZNSt11_Deque_baseImSaImEE16_M_destroy_nodesEPPmS3_.exit.loopexit.i.i.i ], [ %3, %4 ]
  tail call void @_ZdlPv(ptr noundef %14) #21
  br label %_ZNSt5stackImSt5dequeImSaImEEED2Ev.exit

_ZNSt5stackImSt5dequeImSaImEEED2Ev.exit:          ; preds = %1, %_ZNSt11_Deque_baseImSaImEE16_M_destroy_nodesEPPmS3_.exit.i.i.i
  tail call void @_ZN3ue228DefaultConstComponentVisitorD2Ev(ptr noundef nonnull align 8 dereferenceable(8) %0) #20
  ret void
}